target datalayout = "e-m:e-p270:32:32-p271:32:32-p272:64:64-i64:64-i128:128-f80:128-n8:16:32:64-S128"
target triple = "x86_64-pc-linux-gnu"

%"class.sat::literal" = type { i32 }
%"class.pb::solver" = type <{ %"class.euf::th_solver", %"class.pb::solver_interface", ptr, %class.pb_util, ptr, ptr, %"struct.pb::solver::stats", [4 x i8], %class.small_object_allocator, %class.ptr_vector.3, %class.ptr_vector.3, %class.ptr_vector.3, %class.svector.5, i32, i32, i32, i32, %class.svector.7, %class.svector.5, i32, [4 x i8], %class.tracked_uint_set, %class.svector.11, %class.svector.11, i32, [4 x i8], %class.svector.5, %class.svector.11, %class.svector.5, %"struct.pb::solver::ba_sort", %class.psort_nw, %class.vector.13, %"class.sat::use_list", i8, i8, i8, [5 x i8], %class.svector.11, %class.svector.15, %class.svector.5, %class.svector.17, i32, i8, [3 x i8], %"struct.pb::solver::ineq", %"struct.pb::solver::ineq", %"struct.pb::solver::ineq", i8, [7 x i8] }>
%"class.euf::th_solver" = type { %"class.sat::extension", %"class.euf::th_model_builder", %"class.euf::th_decompile", %"class.euf::th_internalizer", ptr }
%"class.sat::extension" = type { ptr, i8, i32, %class.symbol, ptr }
%class.symbol = type { ptr }
%"class.euf::th_model_builder" = type { ptr }
%"class.euf::th_decompile" = type { ptr }
%"class.euf::th_internalizer" = type { ptr, %class.ptr_vector, %class.svector }
%class.ptr_vector = type { %class.vector }
%class.vector = type { ptr }
%class.svector = type { %class.vector.0 }
%class.vector.0 = type { ptr }
%"class.pb::solver_interface" = type { ptr }
%class.pb_util = type { ptr, i32, %class.vector.1, %class.vector.2, %class.rational }
%class.vector.1 = type { ptr }
%class.vector.2 = type { ptr }
%class.rational = type { %class.mpq }
%class.mpq = type { %class.mpz, %class.mpz }
%class.mpz = type { i32, i8, ptr }
%"struct.pb::solver::stats" = type { i32, i32, i32, i32, i32, i32, i32, i32, i32, i32, i32 }
%class.small_object_allocator = type { [32 x ptr], [32 x ptr], i64 }
%class.ptr_vector.3 = type { %class.vector.4 }
%class.vector.4 = type { ptr }
%class.svector.7 = type { %class.vector.8 }
%class.vector.8 = type { ptr }
%class.tracked_uint_set = type { %class.svector.9, %class.svector.5 }
%class.svector.9 = type { %class.vector.10 }
%class.vector.10 = type { ptr }
%"struct.pb::solver::ba_sort" = type { ptr, %"class.sat::literal", %class.svector.11 }
%class.psort_nw = type { %struct.sorting_network_config, ptr, i32, %"struct.psort_nw<pb::solver::ba_sort>::stats" }
%struct.sorting_network_config = type { i32 }
%"struct.psort_nw<pb::solver::ba_sort>::stats" = type { i32, i32, i32 }
%class.vector.13 = type { ptr }
%"class.sat::use_list" = type { %class.vector.14 }
%class.vector.14 = type { ptr }
%class.svector.11 = type { %class.vector.12 }
%class.vector.12 = type { ptr }
%class.svector.15 = type { %class.vector.16 }
%class.vector.16 = type { ptr }
%class.svector.5 = type { %class.vector.6 }
%class.vector.6 = type { ptr }
%class.svector.17 = type { %class.vector.18 }
%class.vector.18 = type { ptr }
%"struct.pb::solver::ineq" = type { %class.svector.17, i64 }
%class.app = type { %class.expr, ptr, i32, %struct.app_flags, [0 x ptr] }
%class.expr = type { %class.ast }
%class.ast = type { i32, i32, i32, i32 }
%struct.app_flags = type <{ i16, i8, i8 }>

; Function Attrs: mustprogress nounwind uwtable
define linkonce_odr hidden noundef nonnull align 4 dereferenceable(4) ptr @_ZN6vectorIN3sat7literalELb0EjEixEj(ptr noundef nonnull align 8 dereferenceable(8) %0, i32 noundef %1) #6 comdat align 2 {
  %3 = alloca ptr, align 8
  %4 = alloca i32, align 4
  store ptr %0, ptr %3, align 8, !tbaa !116
  store i32 %1, ptr %4, align 4, !tbaa !87
  %5 = load ptr, ptr %3, align 8
  %6 = getelementptr inbounds nuw %class.vector.12, ptr %5, i32 0, i32 0
  %7 = load ptr, ptr %6, align 8, !tbaa !118
  %8 = load i32, ptr %4, align 4, !tbaa !87
  %9 = zext i32 %8 to i64
  %10 = getelementptr inbounds nuw %"class.sat::literal", ptr %7, i64 %9
  ret ptr %10
}

; Function Attrs: mustprogress nounwind uwtable
define linkonce_odr hidden noundef i32 @_ZNK6vectorIN3sat7literalELb0EjE4sizeEv(ptr noundef nonnull align 8 dereferenceable(8) %0) #6 comdat align 2 {
  %2 = alloca i32, align 4
  %3 = alloca ptr, align 8
  store ptr %0, ptr %3, align 8, !tbaa !116
  %4 = load ptr, ptr %3, align 8
  %5 = getelementptr inbounds nuw %class.vector.12, ptr %4, i32 0, i32 0
  %6 = load ptr, ptr %5, align 8, !tbaa !118
  %7 = icmp eq ptr %6, null
  br i1 %7, label %8, label %9

8:                                                ; preds = %1
  store i32 0, ptr %2, align 4
  br label %14

9:                                                ; preds = %1
  %10 = getelementptr inbounds nuw %class.vector.12, ptr %4, i32 0, i32 0
  %11 = load ptr, ptr %10, align 8, !tbaa !118
  %12 = getelementptr inbounds i32, ptr %11, i64 -1
  %13 = load i32, ptr %12, align 4, !tbaa !87
  store i32 %13, ptr %2, align 4
  br label %14

14:                                               ; preds = %9, %8
  %15 = load i32, ptr %2, align 4
  ret i32 %15
}

; Function Attrs: mustprogress nounwind uwtable
define linkonce_odr hidden noundef i32 @_ZNK3sat7literal3varEv(ptr noundef nonnull align 4 dereferenceable(4) %0) #6 comdat align 2 {
  %2 = alloca ptr, align 8
  store ptr %0, ptr %2, align 8, !tbaa !93
  %3 = load ptr, ptr %2, align 8
  %4 = getelementptr inbounds nuw %"class.sat::literal", ptr %3, i32 0, i32 0
  %5 = load i32, ptr %4, align 4, !tbaa !94
  %6 = lshr i32 %5, 1
  ret i32 %6
}

; Function Attrs: mustprogress uwtable
define linkonce_odr hidden noundef nonnull align 4 dereferenceable(4) ptr @_ZN6vectorIN3sat7literalELb0EjE4backEv(ptr noundef nonnull align 8 dereferenceable(8) %0) #4 comdat align 2 {
  %2 = alloca ptr, align 8
  store ptr %0, ptr %2, align 8, !tbaa !116
  %3 = load ptr, ptr %2, align 8
  %4 = call noundef i32 @_ZNK6vectorIN3sat7literalELb0EjE4sizeEv(ptr noundef nonnull align 8 dereferenceable(8) %3)
  %5 = sub i32 %4, 1
  %6 = call noundef nonnull align 4 dereferenceable(4) ptr @_ZN6vectorIN3sat7literalELb0EjEixEj(ptr noundef nonnull align 8 dereferenceable(8) %3, i32 noundef %5)
  ret ptr %6
}

; Function Attrs: mustprogress nounwind uwtable
define linkonce_odr hidden noundef nonnull align 8 dereferenceable(4264) ptr @_ZN3sat9extension1sEv(ptr noundef nonnull align 8 dereferenceable(32) %0) #6 comdat align 2 {
  %2 = alloca ptr, align 8
  store ptr %0, ptr %2, align 8, !tbaa !131
  %3 = load ptr, ptr %2, align 8
  %4 = getelementptr inbounds nuw %"class.sat::extension", ptr %3, i32 0, i32 4
  %5 = load ptr, ptr %4, align 8, !tbaa !133
  ret ptr %5
}

; Function Attrs: mustprogress uwtable
define linkonce_odr hidden noundef nonnull align 8 dereferenceable(8) ptr @_ZN6vectorIN3sat7literalELb0EjE9push_backEOS1_(ptr noundef nonnull align 8 dereferenceable(8) %0, ptr noundef nonnull align 4 dereferenceable(4) %1) #4 comdat align 2 {
  %3 = alloca ptr, align 8
  %4 = alloca ptr, align 8
  store ptr %0, ptr %3, align 8, !tbaa !116
  store ptr %1, ptr %4, align 8, !tbaa !93
  %5 = load ptr, ptr %3, align 8
  %6 = getelementptr inbounds nuw %class.vector.12, ptr %5, i32 0, i32 0
  %7 = load ptr, ptr %6, align 8, !tbaa !118
  %8 = icmp eq ptr %7, null
  br i1 %8, label %19, label %9

9:                                                ; preds = %2
  %10 = getelementptr inbounds nuw %class.vector.12, ptr %5, i32 0, i32 0
  %11 = load ptr, ptr %10, align 8, !tbaa !118
  %12 = getelementptr inbounds i32, ptr %11, i64 -1
  %13 = load i32, ptr %12, align 4, !tbaa !87
  %14 = getelementptr inbounds nuw %class.vector.12, ptr %5, i32 0, i32 0
  %15 = load ptr, ptr %14, align 8, !tbaa !118
  %16 = getelementptr inbounds i32, ptr %15, i64 -2
  %17 = load i32, ptr %16, align 4, !tbaa !87
  %18 = icmp eq i32 %13, %17
  br i1 %18, label %19, label %20

19:                                               ; preds = %9, %2
  call void @_ZN6vectorIN3sat7literalELb0EjE13expand_vectorEv(ptr noundef nonnull align 8 dereferenceable(8) %5)
  br label %20

20:                                               ; preds = %19, %9
  %21 = getelementptr inbounds nuw %class.vector.12, ptr %5, i32 0, i32 0
  %22 = load ptr, ptr %21, align 8, !tbaa !118
  %23 = getelementptr inbounds nuw %class.vector.12, ptr %5, i32 0, i32 0
  %24 = load ptr, ptr %23, align 8, !tbaa !118
  %25 = getelementptr inbounds i32, ptr %24, i64 -1
  %26 = load i32, ptr %25, align 4, !tbaa !87
  %27 = zext i32 %26 to i64
  %28 = getelementptr inbounds nuw %"class.sat::literal", ptr %22, i64 %27
  %29 = load ptr, ptr %4, align 8, !tbaa !93
  call void @llvm.memcpy.p0.p0.i64(ptr align 4 %28, ptr align 4 %29, i64 4, i1 false), !tbaa.struct !86
  %30 = getelementptr inbounds nuw %class.vector.12, ptr %5, i32 0, i32 0
  %31 = load ptr, ptr %30, align 8, !tbaa !118
  %32 = getelementptr inbounds i32, ptr %31, i64 -1
  %33 = load i32, ptr %32, align 4, !tbaa !87
  %34 = add i32 %33, 1
  store i32 %34, ptr %32, align 4, !tbaa !87
  ret ptr %5
}

; Function Attrs: mustprogress nounwind uwtable
define linkonce_odr hidden noundef ptr @_ZNK3app3endEv(ptr noundef nonnull align 8 dereferenceable(32) %0) #6 comdat align 2 {
  %2 = alloca ptr, align 8
  store ptr %0, ptr %2, align 8, !tbaa !90
  %3 = load ptr, ptr %2, align 8
  %4 = getelementptr inbounds nuw %class.app, ptr %3, i32 0, i32 4
  %5 = getelementptr inbounds [0 x ptr], ptr %4, i64 0, i64 0
  %6 = getelementptr inbounds nuw %class.app, ptr %3, i32 0, i32 2
  %7 = load i32, ptr %6, align 8, !tbaa !125
  %8 = zext i32 %7 to i64
  %9 = getelementptr inbounds nuw ptr, ptr %5, i64 %8
  ret ptr %9
}

; Function Attrs: mustprogress nounwind uwtable
define linkonce_odr hidden noundef ptr @_ZNK3app5beginEv(ptr noundef nonnull align 8 dereferenceable(32) %0) #6 comdat align 2 {
  %2 = alloca ptr, align 8
  store ptr %0, ptr %2, align 8, !tbaa !90
  %3 = load ptr, ptr %2, align 8
  %4 = getelementptr inbounds nuw %class.app, ptr %3, i32 0, i32 4
  %5 = getelementptr inbounds [0 x ptr], ptr %4, i64 0, i64 0
  ret ptr %5
}

; Function Attrs: mustprogress nounwind uwtable
define linkonce_odr hidden void @_ZN6vectorIN3sat7literalELb0EjEC2Ev(ptr noundef nonnull align 8 dereferenceable(8) %0) unnamed_addr #6 comdat align 2 {
  %2 = alloca ptr, align 8
  store ptr %0, ptr %2, align 8, !tbaa !116
  %3 = load ptr, ptr %2, align 8
  %4 = getelementptr inbounds nuw %class.vector.12, ptr %3, i32 0, i32 0
  store ptr null, ptr %4, align 8, !tbaa !118
  ret void
}

; Function Attrs: mustprogress uwtable
define hidden void @_ZN2pb6solver15convert_pb_argsEP3appR7svectorIN3sat7literalEjE(ptr noundef nonnull align 8 dereferenceable(1049) %0, ptr noundef %1, ptr noundef nonnull align 8 dereferenceable(8) %2) #4 align 2 {
  %4 = alloca ptr, align 8
  %5 = alloca ptr, align 8
  %6 = alloca ptr, align 8
  %7 = alloca ptr, align 8
  %8 = alloca ptr, align 8
  %9 = alloca ptr, align 8
  %10 = alloca ptr, align 8
  %11 = alloca %"class.sat::literal", align 4
  store ptr %0, ptr %4, align 8, !tbaa !3
  store ptr %1, ptr %5, align 8, !tbaa !90
  store ptr %2, ptr %6, align 8, !tbaa !98
  %12 = load ptr, ptr %4, align 8
  call void @llvm.lifetime.start.p0(i64 8, ptr %7) #3
  %13 = load ptr, ptr %5, align 8, !tbaa !90
  store ptr %13, ptr %7, align 8, !tbaa !90
  call void @llvm.lifetime.start.p0(i64 8, ptr %8) #3
  %14 = load ptr, ptr %7, align 8, !tbaa !90
  %15 = call noundef ptr @_ZNK3app5beginEv(ptr noundef nonnull align 8 dereferenceable(32) %14)
  store ptr %15, ptr %8, align 8, !tbaa !123
  call void @llvm.lifetime.start.p0(i64 8, ptr %9) #3
  %16 = load ptr, ptr %7, align 8, !tbaa !90
  %17 = call noundef ptr @_ZNK3app3endEv(ptr noundef nonnull align 8 dereferenceable(32) %16)
  store ptr %17, ptr %9, align 8, !tbaa !123
  br label %18

18:                                               ; preds = %43, %3
  %19 = load ptr, ptr %8, align 8, !tbaa !123
  %20 = load ptr, ptr %9, align 8, !tbaa !123
  %21 = icmp ne ptr %19, %20
  br i1 %21, label %23, label %22

22:                                               ; preds = %18
  call void @llvm.lifetime.end.p0(i64 8, ptr %9) #3
  call void @llvm.lifetime.end.p0(i64 8, ptr %8) #3
  call void @llvm.lifetime.end.p0(i64 8, ptr %7) #3
  br label %46

23:                                               ; preds = %18
  call void @llvm.lifetime.start.p0(i64 8, ptr %10) #3
  %24 = load ptr, ptr %8, align 8, !tbaa !123
  %25 = load ptr, ptr %24, align 8, !tbaa !8
  store ptr %25, ptr %10, align 8, !tbaa !8
  %26 = load ptr, ptr %6, align 8, !tbaa !98
  call void @llvm.lifetime.start.p0(i64 4, ptr %11) #3
  %27 = getelementptr inbounds nuw %"class.pb::solver", ptr %12, i32 0, i32 2
  %28 = load ptr, ptr %27, align 8, !tbaa !92
  %29 = load ptr, ptr %10, align 8, !tbaa !8
  %30 = load ptr, ptr %28, align 8, !tbaa !10
  %31 = getelementptr inbounds ptr, ptr %30, i64 3
  %32 = load ptr, ptr %31, align 8
  %33 = call i32 %32(ptr noundef nonnull align 8 dereferenceable(8) %28, ptr noundef %29)
  %34 = getelementptr inbounds nuw %"class.sat::literal", ptr %11, i32 0, i32 0
  store i32 %33, ptr %34, align 4
  %35 = call noundef nonnull align 8 dereferenceable(8) ptr @_ZN6vectorIN3sat7literalELb0EjE9push_backEOS1_(ptr noundef nonnull align 8 dereferenceable(8) %26, ptr noundef nonnull align 4 dereferenceable(4) %11)
  call void @llvm.lifetime.end.p0(i64 4, ptr %11) #3
  %36 = call noundef nonnull align 8 dereferenceable(4264) ptr @_ZN3sat9extension1sEv(ptr noundef nonnull align 8 dereferenceable(32) %12)
  %37 = load ptr, ptr %6, align 8, !tbaa !98
  %38 = call noundef nonnull align 4 dereferenceable(4) ptr @_ZN6vectorIN3sat7literalELb0EjE4backEv(ptr noundef nonnull align 8 dereferenceable(8) %37)
  %39 = call noundef i32 @_ZNK3sat7literal3varEv(ptr noundef nonnull align 4 dereferenceable(4) %38)
  %40 = load ptr, ptr %36, align 8, !tbaa !10
  %41 = getelementptr inbounds ptr, ptr %40, i64 4
  %42 = load ptr, ptr %41, align 8
  call void %42(ptr noundef nonnull align 8 dereferenceable(4264) %36, i32 noundef %39)
  call void @llvm.lifetime.end.p0(i64 8, ptr %10) #3
  br label %43

43:                                               ; preds = %23
  %44 = load ptr, ptr %8, align 8, !tbaa !123
  %45 = getelementptr inbounds nuw ptr, ptr %44, i32 1
  store ptr %45, ptr %8, align 8, !tbaa !123
  br label %18

46:                                               ; preds = %22
  ret void
}

; Function Attrs: mustprogress nounwind uwtable
define linkonce_odr hidden void @_ZN7svectorIN3sat7literalEjEC2Ev(ptr noundef nonnull align 8 dereferenceable(8) %0) unnamed_addr #6 comdat align 2 {
  %2 = alloca ptr, align 8
  store ptr %0, ptr %2, align 8, !tbaa !98
  %3 = load ptr, ptr %2, align 8
  call void @_ZN6vectorIN3sat7literalELb0EjEC2Ev(ptr noundef nonnull align 8 dereferenceable(8) %3) #3
  ret void
}

; Function Attrs: mustprogress uwtable
define hidden void @_ZN2pb6solver15convert_pb_argsEP3appR7svectorISt4pairIjN3sat7literalEEjE(ptr noundef nonnull align 8 dereferenceable(1049) %0, ptr noundef %1, ptr noundef nonnull align 8 dereferenceable(8) %2) #4 align 2 personality ptr @__gxx_personality_v0 {
  %4 = alloca ptr, align 8
  %5 = alloca ptr, align 8
  %6 = alloca ptr, align 8
  %7 = alloca %class.svector.11, align 8
  %8 = alloca ptr, align 8
  %9 = alloca i32, align 4
  store ptr %0, ptr %4, align 8, !tbaa !3
  store ptr %1, ptr %5, align 8, !tbaa !90
  store ptr %2, ptr %6, align 8, !tbaa !100
  %10 = load ptr, ptr %4, align 8
  call void @llvm.lifetime.start.p0(i64 8, ptr %7) #3
  call void @_ZN7svectorIN3sat7literalEjEC2Ev(ptr noundef nonnull align 8 dereferenceable(8) %7) #3
  %11 = load ptr, ptr %5, align 8, !tbaa !90
  invoke void @_ZN2pb6solver15convert_pb_argsEP3appR7svectorIN3sat7literalEjE(ptr noundef nonnull align 8 dereferenceable(1049) %10, ptr noundef %11, ptr noundef nonnull align 8 dereferenceable(8) %7)
          to label %12 unwind label %16

12:                                               ; preds = %3
  %13 = load ptr, ptr %5, align 8, !tbaa !90
  %14 = load ptr, ptr %6, align 8, !tbaa !100
  invoke void @_ZN2pb6solver16convert_to_wlitsEP3appRK7svectorIN3sat7literalEjERS3_ISt4pairIjS5_EjE(ptr noundef nonnull align 8 dereferenceable(1049) %10, ptr noundef %13, ptr noundef nonnull align 8 dereferenceable(8) %7, ptr noundef nonnull align 8 dereferenceable(8) %14)
          to label %15 unwind label %16

15:                                               ; preds = %12
  call void @_ZN6vectorIN3sat7literalELb0EjED2Ev(ptr noundef nonnull align 8 dereferenceable(8) %7) #3
  call void @llvm.lifetime.end.p0(i64 8, ptr %7) #3
  ret void

16:                                               ; preds = %12, %3
  %17 = landingpad { ptr, i32 }
          cleanup
  %18 = extractvalue { ptr, i32 } %17, 0
  store ptr %18, ptr %8, align 8
  %19 = extractvalue { ptr, i32 } %17, 1
  store i32 %19, ptr %9, align 4
  call void @_ZN6vectorIN3sat7literalELb0EjED2Ev(ptr noundef nonnull align 8 dereferenceable(8) %7) #3
  call void @llvm.lifetime.end.p0(i64 8, ptr %7) #3
  br label %20

20:                                               ; preds = %16
  %21 = load ptr, ptr %8, align 8
  %22 = load i32, ptr %9, align 4
  %23 = insertvalue { ptr, i32 } poison, ptr %21, 0
  %24 = insertvalue { ptr, i32 } %23, i32 %22, 1
  resume { ptr, i32 } %24
}