; Function Attrs: mustprogress uwtable
define hidden void @_ZN2pb6solver15convert_pb_argsEP3appR7svectorISt4pairIjN3sat7literalEEjE(ptr noundef nonnull align 8 dereferenceable(1049) %0, ptr noundef readonly captures(address) %1, ptr noundef nonnull align 8 dereferenceable(8) %2) local_unnamed_addr #3 align 2 personality ptr @__gxx_personality_v0 {
  %4 = alloca %class.svector.11, align 8
  call void @llvm.lifetime.start.p0(i64 8, ptr nonnull %4) #18
  store ptr null, ptr %4, align 8, !tbaa !99
  %5 = getelementptr inbounds nuw i8, ptr %1, i64 24
  %6 = load i32, ptr %5, align 8, !tbaa !100
  %7 = zext i32 %6 to i64
  %.idx.i = shl nuw nsw i64 %7, 3
  %8 = getelementptr inbounds nuw i8, ptr %1, i64 %.idx.i
  %.ptr13.i = getelementptr inbounds nuw i8, ptr %8, i64 32
  %.not11.i = icmp eq i32 %6, 0
  br i1 %.not11.i, label %_ZN2pb6solver15convert_pb_argsEP3appR7svectorIN3sat7literalEjE.exit, label %.lr.ph.i

.lr.ph.i:                                         ; preds = %3
  %.ptr.i = getelementptr inbounds nuw i8, ptr %1, i64 32
  %9 = getelementptr inbounds nuw i8, ptr %0, i64 88
  %10 = getelementptr inbounds nuw i8, ptr %0, i64 24
  br label %11

11:                                               ; preds = %.noexc6, %.lr.ph.i
  %.012.i = phi ptr [ %.ptr.i, %.lr.ph.i ], [ %38, %.noexc6 ]
  %12 = load ptr, ptr %.012.i, align 8, !tbaa !101
  %13 = load ptr, ptr %9, align 8, !tbaa !95
  %14 = load ptr, ptr %13, align 8, !tbaa !3
  %15 = getelementptr inbounds nuw i8, ptr %14, i64 24
  %16 = load ptr, ptr %15, align 8
  %17 = invoke i32 %16(ptr noundef nonnull align 8 dereferenceable(8) %13, ptr noundef %12)
          to label %.noexc unwind label %.loopexit

.noexc:                                           ; preds = %11
  %18 = load ptr, ptr %4, align 8, !tbaa !99
  %19 = icmp eq ptr %18, null
  br i1 %19, label %26, label %20

20:                                               ; preds = %.noexc
  %21 = getelementptr inbounds i8, ptr %18, i64 -4
  %22 = load i32, ptr %21, align 4, !tbaa !103
  %23 = getelementptr inbounds i8, ptr %18, i64 -8
  %24 = load i32, ptr %23, align 4, !tbaa !103
  %25 = icmp eq i32 %22, %24
  br i1 %25, label %26, label %_ZN6vectorIN3sat7literalELb0EjE4backEv.exit.i

26:                                               ; preds = %20, %.noexc
  invoke void @_ZN6vectorIN3sat7literalELb0EjE13expand_vectorEv(ptr noundef nonnull align 8 dereferenceable(8) %4)
          to label %.noexc5 unwind label %.loopexit

.noexc5:                                          ; preds = %26
  %.pre.i.i = load ptr, ptr %4, align 8, !tbaa !99
  %.phi.trans.insert.i.i = getelementptr inbounds i8, ptr %.pre.i.i, i64 -4
  %.pre2.i.i = load i32, ptr %.phi.trans.insert.i.i, align 4, !tbaa !103
  br label %_ZN6vectorIN3sat7literalELb0EjE4backEv.exit.i

_ZN6vectorIN3sat7literalELb0EjE4backEv.exit.i:    ; preds = %.noexc5, %20
  %27 = phi i32 [ %.pre2.i.i, %.noexc5 ], [ %22, %20 ]
  %28 = phi ptr [ %.pre.i.i, %.noexc5 ], [ %18, %20 ]
  %29 = getelementptr inbounds i8, ptr %28, i64 -4
  %30 = zext i32 %27 to i64
  %31 = getelementptr inbounds nuw %"class.sat::literal", ptr %28, i64 %30
  store i32 %17, ptr %31, align 4, !tbaa !103
  %32 = add i32 %27, 1
  store i32 %32, ptr %29, align 4, !tbaa !103
  %33 = load ptr, ptr %10, align 8, !tbaa !104
  %34 = lshr i32 %17, 1
  %35 = load ptr, ptr %33, align 8, !tbaa !3
  %36 = getelementptr inbounds nuw i8, ptr %35, i64 32
  %37 = load ptr, ptr %36, align 8
  invoke void %37(ptr noundef nonnull align 8 dereferenceable(4264) %33, i32 noundef %34)
          to label %.noexc6 unwind label %.loopexit

.noexc6:                                          ; preds = %_ZN6vectorIN3sat7literalELb0EjE4backEv.exit.i
  %38 = getelementptr inbounds nuw i8, ptr %.012.i, i64 8
  %.not.i = icmp eq ptr %38, %.ptr13.i
  br i1 %.not.i, label %_ZN2pb6solver15convert_pb_argsEP3appR7svectorIN3sat7literalEjE.exit, label %11

_ZN2pb6solver15convert_pb_argsEP3appR7svectorIN3sat7literalEjE.exit: ; preds = %.noexc6, %3
  invoke void @_ZN2pb6solver16convert_to_wlitsEP3appRK7svectorIN3sat7literalEjERS3_ISt4pairIjS5_EjE(ptr noundef nonnull align 8 dereferenceable(1049) %0, ptr noundef %1, ptr noundef nonnull align 8 dereferenceable(8) %4, ptr noundef nonnull align 8 dereferenceable(8) %2)
          to label %39 unwind label %.loopexit.split-lp

39:                                               ; preds = %_ZN2pb6solver15convert_pb_argsEP3appR7svectorIN3sat7literalEjE.exit
  %40 = load ptr, ptr %4, align 8, !tbaa !99
  %.not.i.i = icmp eq ptr %40, null
  br i1 %.not.i.i, label %_ZN6vectorIN3sat7literalELb0EjED2Ev.exit, label %41

41:                                               ; preds = %39
  %42 = getelementptr inbounds i8, ptr %40, i64 -8
  invoke void @_ZN6memory10deallocateEPv(ptr noundef nonnull %42)
          to label %_ZN6vectorIN3sat7literalELb0EjED2Ev.exit unwind label %43

43:                                               ; preds = %41
  %44 = landingpad { ptr, i32 }
          catch ptr null
  %45 = extractvalue { ptr, i32 } %44, 0
  call void @__clang_call_terminate(ptr %45) #19
  unreachable

_ZN6vectorIN3sat7literalELb0EjED2Ev.exit:         ; preds = %39, %41
  call void @llvm.lifetime.end.p0(i64 8, ptr nonnull %4) #18
  ret void

.loopexit:                                        ; preds = %11, %26, %_ZN6vectorIN3sat7literalELb0EjE4backEv.exit.i
  %lpad.loopexit = landingpad { ptr, i32 }
          cleanup
  br label %46

.loopexit.split-lp:                               ; preds = %_ZN2pb6solver15convert_pb_argsEP3appR7svectorIN3sat7literalEjE.exit
  %lpad.loopexit.split-lp = landingpad { ptr, i32 }
          cleanup
  br label %46

46:                                               ; preds = %.loopexit.split-lp, %.loopexit
  %lpad.phi = phi { ptr, i32 } [ %lpad.loopexit, %.loopexit ], [ %lpad.loopexit.split-lp, %.loopexit.split-lp ]
  call void @_ZN6vectorIN3sat7literalELb0EjED2Ev(ptr noundef nonnull align 8 dereferenceable(8) %4) #18
  call void @llvm.lifetime.end.p0(i64 8, ptr nonnull %4) #18
  resume { ptr, i32 } %lpad.phi
}